target datalayout = "e-m:e-p270:32:32-p271:32:32-p272:64:64-i64:64-f80:128-n8:16:32:64-S128"
target triple = "x86_64-pc-linux-gnu"

@.str = private unnamed_addr constant [3 x i8] c"%d\00", align 1
@.str.1 = private unnamed_addr constant [18 x i8] c"%s %d %d %s %s %d\00", align 1
@.str.2 = private unnamed_addr constant [2 x i8] c"Y\00", align 1
@.str.3 = private unnamed_addr constant [9 x i8] c"%s\0A%d\0A%d\00", align 1

; Function Attrs: noinline nounwind uwtable
define dso_local i32 @main() #0 {
  %1 = alloca i32, align 4
  %2 = alloca i32, align 4
  %3 = alloca i32, align 4
  %4 = alloca i32, align 4
  %5 = alloca i32, align 4
  %6 = alloca i32, align 4
  %7 = alloca [100 x i32], align 16
  %8 = alloca [100 x i32], align 16
  %9 = alloca [100 x i32], align 16
  %10 = alloca [100 x i32], align 16
  %11 = alloca i32, align 4
  %12 = alloca i32, align 4
  %13 = alloca [100 x [20 x i8]], align 16
  %14 = alloca [100 x [2 x i8]], align 16
  %15 = alloca [100 x [2 x i8]], align 16
  %16 = alloca [20 x i8], align 16
  store i32 0, i32* %1, align 4
  %17 = call i32 (i8*, ...) @__isoc99_scanf(i8* getelementptr inbounds ([3 x i8], [3 x i8]* @.str, i64 0, i64 0), i32* %2)
  store i32 0, i32* %3, align 4
  br label %18

18:                                               ; preds = %42, %0
  %19 = load i32, i32* %3, align 4
  %20 = load i32, i32* %2, align 4
  %21 = icmp slt i32 %19, %20
  br i1 %21, label %22, label %45

22:                                               ; preds = %18
  %23 = load i32, i32* %3, align 4
  %24 = sext i32 %23 to i64
  %25 = getelementptr inbounds [100 x [20 x i8]], [100 x [20 x i8]]* %13, i64 0, i64 %24
  %26 = load i32, i32* %3, align 4
  %27 = sext i32 %26 to i64
  %28 = getelementptr inbounds [100 x i32], [100 x i32]* %7, i64 0, i64 %27
  %29 = load i32, i32* %3, align 4
  %30 = sext i32 %29 to i64
  %31 = getelementptr inbounds [100 x i32], [100 x i32]* %8, i64 0, i64 %30
  %32 = load i32, i32* %3, align 4
  %33 = sext i32 %32 to i64
  %34 = getelementptr inbounds [100 x [2 x i8]], [100 x [2 x i8]]* %14, i64 0, i64 %33
  %35 = load i32, i32* %3, align 4
  %36 = sext i32 %35 to i64
  %37 = getelementptr inbounds [100 x [2 x i8]], [100 x [2 x i8]]* %15, i64 0, i64 %36
  %38 = load i32, i32* %3, align 4
  %39 = sext i32 %38 to i64
  %40 = getelementptr inbounds [100 x i32], [100 x i32]* %9, i64 0, i64 %39
  %41 = call i32 (i8*, ...) @__isoc99_scanf(i8* getelementptr inbounds ([18 x i8], [18 x i8]* @.str.1, i64 0, i64 0), [20 x i8]* %25, i32* %28, i32* %31, [2 x i8]* %34, [2 x i8]* %37, i32* %40)
  br label %42

42:                                               ; preds = %22
  %43 = load i32, i32* %3, align 4
  %44 = add nsw i32 %43, 1
  store i32 %44, i32* %3, align 4
  br label %18

45:                                               ; preds = %18
  store i32 0, i32* %11, align 4
  store i32 0, i32* %4, align 4
  br label %46

46:                                               ; preds = %155, %45
  %47 = load i32, i32* %4, align 4
  %48 = load i32, i32* %2, align 4
  %49 = icmp slt i32 %47, %48
  br i1 %49, label %50, label %158

50:                                               ; preds = %46
  %51 = load i32, i32* %4, align 4
  %52 = sext i32 %51 to i64
  %53 = getelementptr inbounds [100 x i32], [100 x i32]* %10, i64 0, i64 %52
  store i32 0, i32* %53, align 4
  %54 = load i32, i32* %4, align 4
  %55 = sext i32 %54 to i64
  %56 = getelementptr inbounds [100 x i32], [100 x i32]* %7, i64 0, i64 %55
  %57 = load i32, i32* %56, align 4
  %58 = icmp sgt i32 %57, 80
  br i1 %58, label %59, label %74

59:                                               ; preds = %50
  %60 = load i32, i32* %4, align 4
  %61 = sext i32 %60 to i64
  %62 = getelementptr inbounds [100 x i32], [100 x i32]* %9, i64 0, i64 %61
  %63 = load i32, i32* %62, align 4
  %64 = icmp sge i32 %63, 1
  br i1 %64, label %65, label %74

65:                                               ; preds = %59
  %66 = load i32, i32* %4, align 4
  %67 = sext i32 %66 to i64
  %68 = getelementptr inbounds [100 x i32], [100 x i32]* %10, i64 0, i64 %67
  %69 = load i32, i32* %68, align 4
  %70 = add nsw i32 %69, 8000
  %71 = load i32, i32* %4, align 4
  %72 = sext i32 %71 to i64
  %73 = getelementptr inbounds [100 x i32], [100 x i32]* %10, i64 0, i64 %72
  store i32 %70, i32* %73, align 4
  br label %74

74:                                               ; preds = %65, %59, %50
  %75 = load i32, i32* %4, align 4
  %76 = sext i32 %75 to i64
  %77 = getelementptr inbounds [100 x i32], [100 x i32]* %7, i64 0, i64 %76
  %78 = load i32, i32* %77, align 4
  %79 = icmp sgt i32 %78, 85
  br i1 %79, label %80, label %95

80:                                               ; preds = %74
  %81 = load i32, i32* %4, align 4
  %82 = sext i32 %81 to i64
  %83 = getelementptr inbounds [100 x i32], [100 x i32]* %8, i64 0, i64 %82
  %84 = load i32, i32* %83, align 4
  %85 = icmp sgt i32 %84, 80
  br i1 %85, label %86, label %95

86:                                               ; preds = %80
  %87 = load i32, i32* %4, align 4
  %88 = sext i32 %87 to i64
  %89 = getelementptr inbounds [100 x i32], [100 x i32]* %10, i64 0, i64 %88
  %90 = load i32, i32* %89, align 4
  %91 = add nsw i32 %90, 4000
  %92 = load i32, i32* %4, align 4
  %93 = sext i32 %92 to i64
  %94 = getelementptr inbounds [100 x i32], [100 x i32]* %10, i64 0, i64 %93
  store i32 %91, i32* %94, align 4
  br label %95

95:                                               ; preds = %86, %80, %74
  %96 = load i32, i32* %4, align 4
  %97 = sext i32 %96 to i64
  %98 = getelementptr inbounds [100 x i32], [100 x i32]* %7, i64 0, i64 %97
  %99 = load i32, i32* %98, align 4
  %100 = icmp sgt i32 %99, 90
  br i1 %100, label %101, label %110

101:                                              ; preds = %95
  %102 = load i32, i32* %4, align 4
  %103 = sext i32 %102 to i64
  %104 = getelementptr inbounds [100 x i32], [100 x i32]* %10, i64 0, i64 %103
  %105 = load i32, i32* %104, align 4
  %106 = add nsw i32 %105, 2000
  %107 = load i32, i32* %4, align 4
  %108 = sext i32 %107 to i64
  %109 = getelementptr inbounds [100 x i32], [100 x i32]* %10, i64 0, i64 %108
  store i32 %106, i32* %109, align 4
  br label %110

110:                                              ; preds = %101, %95
  %111 = load i32, i32* %4, align 4
  %112 = sext i32 %111 to i64
  %113 = getelementptr inbounds [100 x i32], [100 x i32]* %7, i64 0, i64 %112
  %114 = load i32, i32* %113, align 4
  %115 = icmp sgt i32 %114, 85
  br i1 %115, label %116, label %132

116:                                              ; preds = %110
  %117 = load i32, i32* %4, align 4
  %118 = sext i32 %117 to i64
  %119 = getelementptr inbounds [100 x [2 x i8]], [100 x [2 x i8]]* %15, i64 0, i64 %118
  %120 = getelementptr inbounds [2 x i8], [2 x i8]* %119, i64 0, i64 0
  %121 = call i32 @strcmp(i8* %120, i8* getelementptr inbounds ([2 x i8], [2 x i8]* @.str.2, i64 0, i64 0)) #4
  %122 = icmp eq i32 %121, 0
  br i1 %122, label %123, label %132

123:                                              ; preds = %116
  %124 = load i32, i32* %4, align 4
  %125 = sext i32 %124 to i64
  %126 = getelementptr inbounds [100 x i32], [100 x i32]* %10, i64 0, i64 %125
  %127 = load i32, i32* %126, align 4
  %128 = add nsw i32 %127, 1000
  %129 = load i32, i32* %4, align 4
  %130 = sext i32 %129 to i64
  %131 = getelementptr inbounds [100 x i32], [100 x i32]* %10, i64 0, i64 %130
  store i32 %128, i32* %131, align 4
  br label %132

132:                                              ; preds = %123, %116, %110
  %133 = load i32, i32* %4, align 4
  %134 = sext i32 %133 to i64
  %135 = getelementptr inbounds [100 x i32], [100 x i32]* %8, i64 0, i64 %134
  %136 = load i32, i32* %135, align 4
  %137 = icmp sgt i32 %136, 80
  br i1 %137, label %138, label %154

138:                                              ; preds = %132
  %139 = load i32, i32* %4, align 4
  %140 = sext i32 %139 to i64
  %141 = getelementptr inbounds [100 x [2 x i8]], [100 x [2 x i8]]* %14, i64 0, i64 %140
  %142 = getelementptr inbounds [2 x i8], [2 x i8]* %141, i64 0, i64 0
  %143 = call i32 @strcmp(i8* %142, i8* getelementptr inbounds ([2 x i8], [2 x i8]* @.str.2, i64 0, i64 0)) #4
  %144 = icmp eq i32 %143, 0
  br i1 %144, label %145, label %154

145:                                              ; preds = %138
  %146 = load i32, i32* %4, align 4
  %147 = sext i32 %146 to i64
  %148 = getelementptr inbounds [100 x i32], [100 x i32]* %10, i64 0, i64 %147
  %149 = load i32, i32* %148, align 4
  %150 = add nsw i32 %149, 850
  %151 = load i32, i32* %4, align 4
  %152 = sext i32 %151 to i64
  %153 = getelementptr inbounds [100 x i32], [100 x i32]* %10, i64 0, i64 %152
  store i32 %150, i32* %153, align 4
  br label %154

154:                                              ; preds = %145, %138, %132
  br label %155

155:                                              ; preds = %154
  %156 = load i32, i32* %4, align 4
  %157 = add nsw i32 %156, 1
  store i32 %157, i32* %4, align 4
  br label %46

158:                                              ; preds = %46
  store i32 0, i32* %11, align 4
  store i32 0, i32* %6, align 4
  br label %159

159:                                              ; preds = %170, %158
  %160 = load i32, i32* %6, align 4
  %161 = load i32, i32* %2, align 4
  %162 = icmp slt i32 %160, %161
  br i1 %162, label %163, label %173

163:                                              ; preds = %159
  %164 = load i32, i32* %11, align 4
  %165 = load i32, i32* %6, align 4
  %166 = sext i32 %165 to i64
  %167 = getelementptr inbounds [100 x i32], [100 x i32]* %10, i64 0, i64 %166
  %168 = load i32, i32* %167, align 4
  %169 = add nsw i32 %164, %168
  store i32 %169, i32* %11, align 4
  br label %170

170:                                              ; preds = %163
  %171 = load i32, i32* %6, align 4
  %172 = add nsw i32 %171, 1
  store i32 %172, i32* %6, align 4
  br label %159

173:                                              ; preds = %159
  store i32 0, i32* %12, align 4
  store i32 0, i32* %5, align 4
  br label %174

174:                                              ; preds = %197, %173
  %175 = load i32, i32* %5, align 4
  %176 = load i32, i32* %2, align 4
  %177 = icmp slt i32 %175, %176
  br i1 %177, label %178, label %200

178:                                              ; preds = %174
  %179 = load i32, i32* %5, align 4
  %180 = sext i32 %179 to i64
  %181 = getelementptr inbounds [100 x i32], [100 x i32]* %10, i64 0, i64 %180
  %182 = load i32, i32* %181, align 4
  %183 = load i32, i32* %12, align 4
  %184 = icmp sgt i32 %182, %183
  br i1 %184, label %185, label %196

185:                                              ; preds = %178
  %186 = load i32, i32* %5, align 4
  %187 = sext i32 %186 to i64
  %188 = getelementptr inbounds [100 x i32], [100 x i32]* %10, i64 0, i64 %187
  %189 = load i32, i32* %188, align 4
  store i32 %189, i32* %12, align 4
  %190 = getelementptr inbounds [20 x i8], [20 x i8]* %16, i64 0, i64 0
  %191 = load i32, i32* %5, align 4
  %192 = sext i32 %191 to i64
  %193 = getelementptr inbounds [100 x [20 x i8]], [100 x [20 x i8]]* %13, i64 0, i64 %192
  %194 = getelementptr inbounds [20 x i8], [20 x i8]* %193, i64 0, i64 0
  %195 = call i8* @strcpy(i8* %190, i8* %194) #5
  br label %196

196:                                              ; preds = %185, %178
  br label %197

197:                                              ; preds = %196
  %198 = load i32, i32* %5, align 4
  %199 = add nsw i32 %198, 1
  store i32 %199, i32* %5, align 4
  br label %174

200:                                              ; preds = %174
  %201 = getelementptr inbounds [20 x i8], [20 x i8]* %16, i64 0, i64 0
  %202 = load i32, i32* %12, align 4
  %203 = load i32, i32* %11, align 4
  %204 = call i32 (i8*, ...) @printf(i8* getelementptr inbounds ([9 x i8], [9 x i8]* @.str.3, i64 0, i64 0), i8* %201, i32 %202, i32 %203)
  ret i32 0
}