; Function Attrs: nofree nounwind sspstrong uwtable
define dso_local i32 @main() local_unnamed_addr #0 {
  %1 = alloca i32, align 4
  %2 = alloca [100 x i32], align 16
  %3 = alloca [100 x i32], align 16
  %4 = alloca [100 x i32], align 16
  %5 = alloca [100 x i32], align 16
  %6 = alloca [100 x [20 x i8]], align 16
  %7 = alloca [100 x [2 x i8]], align 16
  %8 = alloca [100 x [2 x i8]], align 16
  %9 = alloca [20 x i8], align 16
  %10 = bitcast i32* %1 to i8*
  call void @llvm.lifetime.start.p0i8(i64 4, i8* nonnull %10) #6
  %11 = bitcast [100 x i32]* %2 to i8*
  call void @llvm.lifetime.start.p0i8(i64 400, i8* nonnull %11) #6
  %12 = bitcast [100 x i32]* %3 to i8*
  call void @llvm.lifetime.start.p0i8(i64 400, i8* nonnull %12) #6
  %13 = bitcast [100 x i32]* %4 to i8*
  call void @llvm.lifetime.start.p0i8(i64 400, i8* nonnull %13) #6
  %14 = bitcast [100 x i32]* %5 to i8*
  call void @llvm.lifetime.start.p0i8(i64 400, i8* nonnull %14) #6
  %15 = getelementptr inbounds [100 x [20 x i8]], [100 x [20 x i8]]* %6, i64 0, i64 0, i64 0
  call void @llvm.lifetime.start.p0i8(i64 2000, i8* nonnull %15) #6
  %16 = getelementptr inbounds [100 x [2 x i8]], [100 x [2 x i8]]* %7, i64 0, i64 0, i64 0
  call void @llvm.lifetime.start.p0i8(i64 200, i8* nonnull %16) #6
  %17 = getelementptr inbounds [100 x [2 x i8]], [100 x [2 x i8]]* %8, i64 0, i64 0, i64 0
  call void @llvm.lifetime.start.p0i8(i64 200, i8* nonnull %17) #6
  %18 = getelementptr inbounds [20 x i8], [20 x i8]* %9, i64 0, i64 0
  call void @llvm.lifetime.start.p0i8(i64 20, i8* nonnull %18) #6
  %19 = call i32 (i8*, ...) @__isoc99_scanf(i8* getelementptr inbounds ([3 x i8], [3 x i8]* @.str, i64 0, i64 0), i32* nonnull %1)
  %20 = load i32, i32* %1, align 4, !tbaa !5
  %21 = icmp sgt i32 %20, 0
  br i1 %21, label %26, label %196

22:                                               ; preds = %26
  %23 = icmp sgt i32 %36, 0
  br i1 %23, label %24, label %196

24:                                               ; preds = %22
  %25 = zext i32 %36 to i64
  br label %127

26:                                               ; preds = %0, %26
  %27 = phi i64 [ %35, %26 ], [ 0, %0 ]
  %28 = getelementptr inbounds [100 x [20 x i8]], [100 x [20 x i8]]* %6, i64 0, i64 %27
  %29 = getelementptr inbounds [100 x i32], [100 x i32]* %2, i64 0, i64 %27
  %30 = getelementptr inbounds [100 x i32], [100 x i32]* %3, i64 0, i64 %27
  %31 = getelementptr inbounds [100 x [2 x i8]], [100 x [2 x i8]]* %7, i64 0, i64 %27
  %32 = getelementptr inbounds [100 x [2 x i8]], [100 x [2 x i8]]* %8, i64 0, i64 %27
  %33 = getelementptr inbounds [100 x i32], [100 x i32]* %4, i64 0, i64 %27
  %34 = call i32 (i8*, ...) @__isoc99_scanf(i8* getelementptr inbounds ([18 x i8], [18 x i8]* @.str.1, i64 0, i64 0), [20 x i8]* nonnull %28, i32* nonnull %29, i32* nonnull %30, [2 x i8]* nonnull %31, [2 x i8]* nonnull %32, i32* nonnull %33)
  %35 = add nuw nsw i64 %27, 1
  %36 = load i32, i32* %1, align 4, !tbaa !5
  %37 = sext i32 %36 to i64
  %38 = icmp slt i64 %35, %37
  br i1 %38, label %26, label %22, !llvm.loop !9

39:                                               ; preds = %169
  br i1 %23, label %40, label %196

40:                                               ; preds = %39
  %41 = zext i32 %36 to i64
  %42 = icmp ult i32 %36, 8
  br i1 %42, label %124, label %43

43:                                               ; preds = %40
  %44 = and i64 %25, 4294967288
  %45 = add nsw i64 %44, -8
  %46 = lshr exact i64 %45, 3
  %47 = add nuw nsw i64 %46, 1
  %48 = and i64 %47, 3
  %49 = icmp ult i64 %45, 24
  br i1 %49, label %95, label %50

50:                                               ; preds = %43
  %51 = and i64 %47, 4611686018427387900
  br label %52

52:                                               ; preds = %52, %50
  %53 = phi i64 [ 0, %50 ], [ %92, %52 ]
  %54 = phi <4 x i32> [ zeroinitializer, %50 ], [ %90, %52 ]
  %55 = phi <4 x i32> [ zeroinitializer, %50 ], [ %91, %52 ]
  %56 = phi i64 [ %51, %50 ], [ %93, %52 ]
  %57 = getelementptr inbounds [100 x i32], [100 x i32]* %5, i64 0, i64 %53
  %58 = bitcast i32* %57 to <4 x i32>*
  %59 = load <4 x i32>, <4 x i32>* %58, align 16, !tbaa !5
  %60 = getelementptr inbounds i32, i32* %57, i64 4
  %61 = bitcast i32* %60 to <4 x i32>*
  %62 = load <4 x i32>, <4 x i32>* %61, align 16, !tbaa !5
  %63 = add <4 x i32> %59, %54
  %64 = add <4 x i32> %62, %55
  %65 = or i64 %53, 8
  %66 = getelementptr inbounds [100 x i32], [100 x i32]* %5, i64 0, i64 %65
  %67 = bitcast i32* %66 to <4 x i32>*
  %68 = load <4 x i32>, <4 x i32>* %67, align 16, !tbaa !5
  %69 = getelementptr inbounds i32, i32* %66, i64 4
  %70 = bitcast i32* %69 to <4 x i32>*
  %71 = load <4 x i32>, <4 x i32>* %70, align 16, !tbaa !5
  %72 = add <4 x i32> %68, %63
  %73 = add <4 x i32> %71, %64
  %74 = or i64 %53, 16
  %75 = getelementptr inbounds [100 x i32], [100 x i32]* %5, i64 0, i64 %74
  %76 = bitcast i32* %75 to <4 x i32>*
  %77 = load <4 x i32>, <4 x i32>* %76, align 16, !tbaa !5
  %78 = getelementptr inbounds i32, i32* %75, i64 4
  %79 = bitcast i32* %78 to <4 x i32>*
  %80 = load <4 x i32>, <4 x i32>* %79, align 16, !tbaa !5
  %81 = add <4 x i32> %77, %72
  %82 = add <4 x i32> %80, %73
  %83 = or i64 %53, 24
  %84 = getelementptr inbounds [100 x i32], [100 x i32]* %5, i64 0, i64 %83
  %85 = bitcast i32* %84 to <4 x i32>*
  %86 = load <4 x i32>, <4 x i32>* %85, align 16, !tbaa !5
  %87 = getelementptr inbounds i32, i32* %84, i64 4
  %88 = bitcast i32* %87 to <4 x i32>*
  %89 = load <4 x i32>, <4 x i32>* %88, align 16, !tbaa !5
  %90 = add <4 x i32> %86, %81
  %91 = add <4 x i32> %89, %82
  %92 = add nuw i64 %53, 32
  %93 = add i64 %56, -4
  %94 = icmp eq i64 %93, 0
  br i1 %94, label %95, label %52, !llvm.loop !11

95:                                               ; preds = %52, %43
  %96 = phi <4 x i32> [ undef, %43 ], [ %90, %52 ]
  %97 = phi <4 x i32> [ undef, %43 ], [ %91, %52 ]
  %98 = phi i64 [ 0, %43 ], [ %92, %52 ]
  %99 = phi <4 x i32> [ zeroinitializer, %43 ], [ %90, %52 ]
  %100 = phi <4 x i32> [ zeroinitializer, %43 ], [ %91, %52 ]
  %101 = icmp eq i64 %48, 0
  br i1 %101, label %118, label %102

102:                                              ; preds = %95, %102
  %103 = phi i64 [ %115, %102 ], [ %98, %95 ]
  %104 = phi <4 x i32> [ %113, %102 ], [ %99, %95 ]
  %105 = phi <4 x i32> [ %114, %102 ], [ %100, %95 ]
  %106 = phi i64 [ %116, %102 ], [ %48, %95 ]
  %107 = getelementptr inbounds [100 x i32], [100 x i32]* %5, i64 0, i64 %103
  %108 = bitcast i32* %107 to <4 x i32>*
  %109 = load <4 x i32>, <4 x i32>* %108, align 16, !tbaa !5
  %110 = getelementptr inbounds i32, i32* %107, i64 4
  %111 = bitcast i32* %110 to <4 x i32>*
  %112 = load <4 x i32>, <4 x i32>* %111, align 16, !tbaa !5
  %113 = add <4 x i32> %109, %104
  %114 = add <4 x i32> %112, %105
  %115 = add nuw i64 %103, 8
  %116 = add i64 %106, -1
  %117 = icmp eq i64 %116, 0
  br i1 %117, label %118, label %102, !llvm.loop !13

118:                                              ; preds = %102, %95
  %119 = phi <4 x i32> [ %96, %95 ], [ %113, %102 ]
  %120 = phi <4 x i32> [ %97, %95 ], [ %114, %102 ]
  %121 = add <4 x i32> %120, %119
  %122 = call i32 @llvm.vector.reduce.add.v4i32(<4 x i32> %121)
  %123 = icmp eq i64 %44, %25
  br i1 %123, label %172, label %124

124:                                              ; preds = %40, %118
  %125 = phi i64 [ 0, %40 ], [ %44, %118 ]
  %126 = phi i32 [ 0, %40 ], [ %122, %118 ]
  br label %175

127:                                              ; preds = %24, %169
  %128 = phi i64 [ 0, %24 ], [ %170, %169 ]
  %129 = getelementptr inbounds [100 x i32], [100 x i32]* %5, i64 0, i64 %128
  store i32 0, i32* %129, align 4, !tbaa !5
  %130 = getelementptr inbounds [100 x i32], [100 x i32]* %2, i64 0, i64 %128
  %131 = load i32, i32* %130, align 4, !tbaa !5
  %132 = icmp sgt i32 %131, 80
  br i1 %132, label %133, label %158

133:                                              ; preds = %127
  %134 = getelementptr inbounds [100 x i32], [100 x i32]* %4, i64 0, i64 %128
  %135 = load i32, i32* %134, align 4, !tbaa !5
  %136 = icmp sgt i32 %135, 0
  br i1 %136, label %137, label %138

137:                                              ; preds = %133
  store i32 8000, i32* %129, align 4, !tbaa !5
  br label %138

138:                                              ; preds = %137, %133
  %139 = phi i32 [ 8000, %137 ], [ 0, %133 ]
  %140 = icmp sgt i32 %131, 85
  br i1 %140, label %141, label %158

141:                                              ; preds = %138
  %142 = getelementptr inbounds [100 x i32], [100 x i32]* %3, i64 0, i64 %128
  %143 = load i32, i32* %142, align 4, !tbaa !5
  %144 = icmp sgt i32 %143, 80
  %145 = add nuw nsw i32 %139, 4000
  %146 = select i1 %144, i32 %145, i32 %139
  %147 = icmp sgt i32 %131, 90
  %148 = add nuw nsw i32 %146, 2000
  %149 = select i1 %147, i32 %148, i32 %146
  %150 = or i1 %144, %147
  br i1 %150, label %151, label %152

151:                                              ; preds = %141
  store i32 %149, i32* %129, align 4, !tbaa !5
  br label %152

152:                                              ; preds = %141, %151
  %153 = getelementptr inbounds [100 x [2 x i8]], [100 x [2 x i8]]* %8, i64 0, i64 %128, i64 0
  %154 = call i32 @strcmp(i8* noundef nonnull %153, i8* noundef nonnull dereferenceable(2) getelementptr inbounds ([2 x i8], [2 x i8]* @.str.2, i64 0, i64 0)) #7
  %155 = icmp eq i32 %154, 0
  br i1 %155, label %156, label %158

156:                                              ; preds = %152
  %157 = add nuw nsw i32 %149, 1000
  store i32 %157, i32* %129, align 4, !tbaa !5
  br label %158

158:                                              ; preds = %138, %127, %156, %152
  %159 = phi i32 [ %139, %138 ], [ 0, %127 ], [ %157, %156 ], [ %149, %152 ]
  %160 = getelementptr inbounds [100 x i32], [100 x i32]* %3, i64 0, i64 %128
  %161 = load i32, i32* %160, align 4, !tbaa !5
  %162 = icmp sgt i32 %161, 80
  br i1 %162, label %163, label %169

163:                                              ; preds = %158
  %164 = getelementptr inbounds [100 x [2 x i8]], [100 x [2 x i8]]* %7, i64 0, i64 %128, i64 0
  %165 = call i32 @strcmp(i8* noundef nonnull %164, i8* noundef nonnull dereferenceable(2) getelementptr inbounds ([2 x i8], [2 x i8]* @.str.2, i64 0, i64 0)) #7
  %166 = icmp eq i32 %165, 0
  br i1 %166, label %167, label %169

167:                                              ; preds = %163
  %168 = add nuw nsw i32 %159, 850
  store i32 %168, i32* %129, align 4, !tbaa !5
  br label %169

169:                                              ; preds = %158, %163, %167
  %170 = add nuw nsw i64 %128, 1
  %171 = icmp eq i64 %170, %25
  br i1 %171, label %39, label %127, !llvm.loop !15

172:                                              ; preds = %175, %118
  %173 = phi i32 [ %122, %118 ], [ %180, %175 ]
  %174 = zext i32 %36 to i64
  br label %183

175:                                              ; preds = %124, %175
  %176 = phi i64 [ %181, %175 ], [ %125, %124 ]
  %177 = phi i32 [ %180, %175 ], [ %126, %124 ]
  %178 = getelementptr inbounds [100 x i32], [100 x i32]* %5, i64 0, i64 %176
  %179 = load i32, i32* %178, align 4, !tbaa !5
  %180 = add nsw i32 %179, %177
  %181 = add nuw nsw i64 %176, 1
  %182 = icmp eq i64 %181, %41
  br i1 %182, label %172, label %175, !llvm.loop !16

183:                                              ; preds = %172, %192
  %184 = phi i64 [ 0, %172 ], [ %194, %192 ]
  %185 = phi i32 [ 0, %172 ], [ %193, %192 ]
  %186 = getelementptr inbounds [100 x i32], [100 x i32]* %5, i64 0, i64 %184
  %187 = load i32, i32* %186, align 4, !tbaa !5
  %188 = icmp sgt i32 %187, %185
  br i1 %188, label %189, label %192

189:                                              ; preds = %183
  %190 = getelementptr inbounds [100 x [20 x i8]], [100 x [20 x i8]]* %6, i64 0, i64 %184, i64 0
  %191 = call i8* @strcpy(i8* noundef nonnull %18, i8* noundef nonnull %190) #6
  br label %192

192:                                              ; preds = %183, %189
  %193 = phi i32 [ %187, %189 ], [ %185, %183 ]
  %194 = add nuw nsw i64 %184, 1
  %195 = icmp eq i64 %194, %174
  br i1 %195, label %196, label %183, !llvm.loop !18

196:                                              ; preds = %192, %22, %0, %39
  %197 = phi i32 [ 0, %39 ], [ 0, %0 ], [ 0, %22 ], [ %173, %192 ]
  %198 = phi i32 [ 0, %39 ], [ 0, %0 ], [ 0, %22 ], [ %193, %192 ]
  %199 = call i32 (i8*, ...) @printf(i8* nonnull dereferenceable(1) getelementptr inbounds ([9 x i8], [9 x i8]* @.str.3, i64 0, i64 0), i8* nonnull %18, i32 %198, i32 %197)
  call void @llvm.lifetime.end.p0i8(i64 20, i8* nonnull %18) #6
  call void @llvm.lifetime.end.p0i8(i64 200, i8* nonnull %17) #6
  call void @llvm.lifetime.end.p0i8(i64 200, i8* nonnull %16) #6
  call void @llvm.lifetime.end.p0i8(i64 2000, i8* nonnull %15) #6
  call void @llvm.lifetime.end.p0i8(i64 400, i8* nonnull %14) #6
  call void @llvm.lifetime.end.p0i8(i64 400, i8* nonnull %13) #6
  call void @llvm.lifetime.end.p0i8(i64 400, i8* nonnull %12) #6
  call void @llvm.lifetime.end.p0i8(i64 400, i8* nonnull %11) #6
  call void @llvm.lifetime.end.p0i8(i64 4, i8* nonnull %10) #6
  ret i32 0
}